; Function Attrs: mustprogress uwtable
define noundef zeroext i1 @_ZN8proxygen15HTTPTransaction21trackEgressBodyOffsetEmNS_9ByteEvent10EventFlagsE(ptr noundef nonnull align 8 dereferenceable(912) %this, i64 noundef %offset, i8 noundef zeroext %flags) local_unnamed_addr #3 align 2 {
entry:
  %offset.addr = alloca i64, align 8
  %flags.addr = alloca i8, align 1
  store i64 %offset, ptr %offset.addr, align 8
  store i8 %flags, ptr %flags.addr, align 1
  %transport_ = getelementptr inbounds i8, ptr %this, i64 272
  %0 = load ptr, ptr %transport_, align 8
  %vtable = load ptr, ptr %0, align 8
  %vfn = getelementptr inbounds i8, ptr %vtable, i64 216
  %1 = load ptr, ptr %vfn, align 8
  %call = tail call noundef zeroext i8 %1(ptr noundef nonnull align 8 dereferenceable(8) %0) #27
  %cmp.not = icmp eq i8 %call, 1
  br i1 %cmp.not, label %if.end, label %return

if.end:                                           ; preds = %entry
  %bodyBytesEgressed_ = getelementptr inbounds i8, ptr %this, i64 672
  %2 = load i64, ptr %bodyBytesEgressed_, align 8
  %cmp2 = icmp ugt i64 %2, %offset
  br i1 %cmp2, label %if.then3, label %if.else

if.then3:                                         ; preds = %if.end
  %3 = load ptr, ptr %transport_, align 8
  %vtable5 = load ptr, ptr %3, align 8
  %vfn6 = getelementptr inbounds i8, ptr %vtable5, i64 432
  %4 = load ptr, ptr %vfn6, align 8
  tail call void %4(ptr noundef nonnull align 8 dereferenceable(8) %3, i64 noundef %offset, i8 noundef zeroext %flags)
  br label %return

if.else:                                          ; preds = %if.end
  %egressBodyOffsetsToTrack_ = getelementptr inbounds i8, ptr %this, i64 680
  %call7 = call { ptr, i8 } @_ZNSt3mapImN8proxygen9ByteEvent10EventFlagsESt4lessImESaISt4pairIKmS2_EEE7emplaceIJRmRS2_EEES5_ISt17_Rb_tree_iteratorIS7_EbEDpOT_(ptr noundef nonnull align 8 dereferenceable(48) %egressBodyOffsetsToTrack_, ptr noundef nonnull align 8 dereferenceable(8) %offset.addr, ptr noundef nonnull align 1 dereferenceable(1) %flags.addr)
  br label %return

return:                                           ; preds = %if.then3, %if.else, %entry
  ret i1 %cmp.not
}